; Function Attrs: mustprogress uwtable
define hidden void @_ZN4cvc58internal6theory11TheoryState33addEqualityEngineTriggerPredicateENS0_12NodeTemplateILb0EEE(ptr noundef nonnull align 8 dereferenceable(160) %0, ptr noundef readonly captures(none) %1) local_unnamed_addr #3 align 2 personality ptr @__gxx_personality_v0 {
  %3 = alloca %"class.cvc5::internal::NodeTemplate", align 8
  %4 = alloca %"class.cvc5::internal::NodeTemplate", align 8
  %5 = alloca %"class.cvc5::internal::NodeTemplate", align 8
  %6 = getelementptr inbounds nuw i8, ptr %0, i64 16
  %7 = load ptr, ptr %1, align 8, !tbaa !45
  store ptr %7, ptr %4, align 8, !tbaa !45
  %8 = call noundef zeroext i1 @_ZNK4cvc58internal6theory9Valuation11hasSatValueENS0_12NodeTemplateILb0EEE(ptr noundef nonnull align 8 dereferenceable(8) %6, ptr noundef nonnull %4)
  %9 = getelementptr inbounds nuw i8, ptr %0, i64 24
  %10 = load ptr, ptr %9, align 8, !tbaa !10
  %11 = load ptr, ptr %1, align 8, !tbaa !45
  br i1 %8, label %13, label %12

12:                                               ; preds = %2
  store ptr %11, ptr %5, align 8, !tbaa !45
  call void @_ZN4cvc58internal6theory2eq14EqualityEngine19addTriggerPredicateENS0_12NodeTemplateILb0EEE(ptr noundef nonnull align 8 dereferenceable(1784) %10, ptr noundef nonnull %5)
  br label %14

13:                                               ; preds = %2
  call void @llvm.lifetime.start.p0(i64 8, ptr nonnull %3)
  store ptr %11, ptr %3, align 8, !tbaa !45
  call void @_ZN4cvc58internal6theory2eq14EqualityEngine15addTermInternalENS0_12NodeTemplateILb0EEEb(ptr noundef nonnull align 8 dereferenceable(1784) %10, ptr noundef nonnull %3, i1 noundef zeroext false)
  call void @llvm.lifetime.end.p0(i64 8, ptr nonnull %3)
  br label %14

14:                                               ; preds = %12, %13
  ret void
}